; Function Attrs: inlinehint mustprogress uwtable
define internal void @"_ZZN4lean22initialize_libuv_timerEvEN3$_08__invokeEPvP11lean_object"(ptr noundef readonly captures(none) %0, ptr noundef %1) #4 align 2 {
  %3 = getelementptr inbounds nuw i8, ptr %0, i64 8
  %4 = load ptr, ptr %3, align 8, !tbaa !3
  %.not.i = icmp eq ptr %4, null
  br i1 %.not.i, label %"_ZZN4lean22initialize_libuv_timerEvENK3$_0clEPvP11lean_object.exit", label %5

5:                                                ; preds = %2
  %6 = ptrtoint ptr %1 to i64
  %7 = and i64 %6, 1
  %.not1.i = icmp eq i64 %7, 0
  br i1 %.not1.i, label %8, label %_ZL8lean_incP11lean_object.exit.i

8:                                                ; preds = %5
  %.val.i.i = load i32, ptr %1, align 4, !tbaa !12
  %9 = icmp sgt i32 %.val.i.i, 0
  br i1 %9, label %10, label %12, !prof !15

10:                                               ; preds = %8
  %11 = add nuw nsw i32 %.val.i.i, 1
  store i32 %11, ptr %1, align 4, !tbaa !12
  br label %_ZL8lean_incP11lean_object.exit.i

12:                                               ; preds = %8
  %.not.i.i = icmp eq i32 %.val.i.i, 0
  br i1 %.not.i.i, label %_ZL8lean_incP11lean_object.exit.i, label %13

13:                                               ; preds = %12
  tail call void @lean_inc_ref_cold(ptr noundef nonnull %1)
  %.pre.i = load ptr, ptr %3, align 8, !tbaa !3
  br label %_ZL8lean_incP11lean_object.exit.i

_ZL8lean_incP11lean_object.exit.i:                ; preds = %13, %12, %10, %5
  %14 = phi ptr [ %.pre.i, %13 ], [ %4, %12 ], [ %4, %10 ], [ %4, %5 ]
  %15 = tail call ptr @lean_apply_1(ptr noundef %1, ptr noundef %14)
  br label %"_ZZN4lean22initialize_libuv_timerEvENK3$_0clEPvP11lean_object.exit"

"_ZZN4lean22initialize_libuv_timerEvENK3$_0clEPvP11lean_object.exit": ; preds = %2, %_ZL8lean_incP11lean_object.exit.i
  ret void
}